target datalayout = "e-m:e-p270:32:32-p271:32:32-p272:64:64-i64:64-i128:128-f80:128-n8:16:32:64-S128"
target triple = "x86_64-pc-linux-gnu"

%struct.FrameRateContext = type { ptr, %struct.AVRational, i32, double, i32, i32, [4 x i32], [4 x i32], i32, %struct.AVRational, %struct.AVRational, ptr, double, i32, i32, ptr, ptr, ptr, i64, i64, i64, double, i32, i64, i64, ptr }
%struct.AVRational = type { i32, i32 }

; Function Attrs: nounwind uwtable
define void @ff_framerate_init(ptr noundef %0) #0 {
  %2 = alloca ptr, align 8
  store ptr %0, ptr %2, align 8, !tbaa !4
  %3 = load ptr, ptr %2, align 8, !tbaa !4
  %4 = getelementptr inbounds nuw %struct.FrameRateContext, ptr %3, i32 0, i32 14
  %5 = load i32, ptr %4, align 4, !tbaa !9
  %6 = icmp eq i32 %5, 8
  br i1 %6, label %7, label %12

7:                                                ; preds = %1
  %8 = load ptr, ptr %2, align 8, !tbaa !4
  %9 = getelementptr inbounds nuw %struct.FrameRateContext, ptr %8, i32 0, i32 13
  store i32 128, ptr %9, align 8, !tbaa !17
  %10 = load ptr, ptr %2, align 8, !tbaa !4
  %11 = getelementptr inbounds nuw %struct.FrameRateContext, ptr %10, i32 0, i32 25
  store ptr @blend_frames8_c, ptr %11, align 8, !tbaa !18
  br label %17

12:                                               ; preds = %1
  %13 = load ptr, ptr %2, align 8, !tbaa !4
  %14 = getelementptr inbounds nuw %struct.FrameRateContext, ptr %13, i32 0, i32 13
  store i32 32768, ptr %14, align 8, !tbaa !17
  %15 = load ptr, ptr %2, align 8, !tbaa !4
  %16 = getelementptr inbounds nuw %struct.FrameRateContext, ptr %15, i32 0, i32 25
  store ptr @blend_frames16_c, ptr %16, align 8, !tbaa !18
  br label %17

17:                                               ; preds = %12, %7
  ret void
}