; Function Attrs: mustprogress nofree norecurse nosync nounwind willreturn memory(argmem: readwrite) uwtable
define void @ff_framerate_init(ptr noundef captures(none) initializes((112, 116), (200, 208)) %0) local_unnamed_addr #0 {
  %2 = getelementptr inbounds nuw i8, ptr %0, i64 116
  %3 = load i32, ptr %2, align 4, !tbaa !4
  %4 = icmp eq i32 %3, 8
  %spec.select = select i1 %4, i32 128, i32 32768
  %spec.select5 = select i1 %4, ptr @blend_frames8_c, ptr @blend_frames16_c
  %5 = getelementptr inbounds nuw i8, ptr %0, i64 112
  store i32 %spec.select, ptr %5, align 8, !tbaa !15
  %6 = getelementptr inbounds nuw i8, ptr %0, i64 200
  store ptr %spec.select5, ptr %6, align 8, !tbaa !16
  ret void
}